target datalayout = "e-m:e-p270:32:32-p271:32:32-p272:64:64-i64:64-i128:128-f80:128-n8:16:32:64-S128"
target triple = "x86_64-pc-linux-gnu"

%struct.MemTxAttrs = type { i32, i8, i8, i16 }

; Function Attrs: nounwind sspstrong uwtable
define internal zeroext i1 @fw_cfg_comb_valid(ptr noundef %0, i64 noundef %1, i32 noundef %2, i1 noundef zeroext %3, i64 %4) #0 {
  %6 = alloca %struct.MemTxAttrs, align 4
  %7 = alloca ptr, align 8
  %8 = alloca i64, align 8
  %9 = alloca i32, align 4
  %10 = alloca i8, align 1
  store i64 %4, ptr %6, align 4
  store ptr %0, ptr %7, align 8
  store i64 %1, ptr %8, align 8
  store i32 %2, ptr %9, align 4
  %11 = zext i1 %3 to i8
  store i8 %11, ptr %10, align 1
  %12 = load i32, ptr %9, align 4
  %13 = icmp eq i32 %12, 1
  br i1 %13, label %22, label %14

14:                                               ; preds = %5
  %15 = load i8, ptr %10, align 1, !range !4, !noundef !5
  %16 = trunc i8 %15 to i1
  br i1 %16, label %17, label %20

17:                                               ; preds = %14
  %18 = load i32, ptr %9, align 4
  %19 = icmp eq i32 %18, 2
  br label %20

20:                                               ; preds = %17, %14
  %21 = phi i1 [ false, %14 ], [ %19, %17 ]
  br label %22

22:                                               ; preds = %20, %5
  %23 = phi i1 [ true, %5 ], [ %21, %20 ]
  ret i1 %23
}