; Function Attrs: mustprogress nofree norecurse nosync nounwind sspstrong willreturn memory(none) uwtable
define internal noundef zeroext i1 @fw_cfg_comb_valid(ptr readnone captures(none) %0, i64 %1, i32 noundef %2, i1 noundef zeroext %3, i64 %4) #13 {
  %6 = icmp eq i32 %2, 1
  br i1 %6, label %10, label %7

7:                                                ; preds = %5
  %8 = icmp eq i32 %2, 2
  %9 = and i1 %3, %8
  br label %10

10:                                               ; preds = %7, %5
  %11 = phi i1 [ true, %5 ], [ %9, %7 ]
  ret i1 %11
}